target datalayout = "e-m:e-p270:32:32-p271:32:32-p272:64:64-i64:64-i128:128-f80:128-n8:16:32:64-S128"
target triple = "x86_64-pc-linux-gnu"

%union.__CONST_SOCKADDR_ARG = type { ptr }
%struct.in_addr = type { i32 }
%struct.sockaddr_in = type { i16, i16, %struct.in_addr, [8 x i8] }
%union.__SOCKADDR_ARG = type { ptr }

; Function Attrs: nounwind uwtable
define i32 @evutil_closesocket(i32 noundef %0) #0 {
  %2 = alloca i32, align 4
  store i32 %0, ptr %2, align 4
  %3 = load i32, ptr %2, align 4
  %4 = call i32 @close(i32 noundef %3)
  ret i32 %4
}

; Function Attrs: inlinehint nounwind uwtable
define internal i32 @__bswap_32(i32 noundef %0) #5 {
  %2 = alloca i32, align 4
  store i32 %0, ptr %2, align 4
  %3 = load i32, ptr %2, align 4
  %4 = and i32 %3, -16777216
  %5 = lshr i32 %4, 24
  %6 = load i32, ptr %2, align 4
  %7 = and i32 %6, 16711680
  %8 = lshr i32 %7, 8
  %9 = or i32 %5, %8
  %10 = load i32, ptr %2, align 4
  %11 = and i32 %10, 65280
  %12 = shl i32 %11, 8
  %13 = or i32 %9, %12
  %14 = load i32, ptr %2, align 4
  %15 = and i32 %14, 255
  %16 = shl i32 %15, 24
  %17 = or i32 %13, %16
  ret i32 %17
}

; Function Attrs: nounwind uwtable
define i32 @evutil_ersatz_socketpair_(i32 noundef %0, i32 noundef %1, i32 noundef %2, ptr noundef %3) #0 {
  %5 = alloca i32, align 4
  %6 = alloca i32, align 4
  %7 = alloca i32, align 4
  %8 = alloca i32, align 4
  %9 = alloca ptr, align 8
  %10 = alloca i32, align 4
  %11 = alloca i32, align 4
  %12 = alloca i32, align 4
  %13 = alloca %struct.sockaddr_in, align 4
  %14 = alloca %struct.sockaddr_in, align 4
  %15 = alloca i32, align 4
  %16 = alloca i32, align 4
  %17 = alloca i32, align 4
  %18 = alloca i32, align 4
  %19 = alloca %union.__CONST_SOCKADDR_ARG, align 8
  %20 = alloca %union.__SOCKADDR_ARG, align 8
  %21 = alloca %union.__CONST_SOCKADDR_ARG, align 8
  %22 = alloca i32, align 4
  %23 = alloca %union.__SOCKADDR_ARG, align 8
  %24 = alloca %union.__SOCKADDR_ARG, align 8
  store i32 %0, ptr %6, align 4
  store i32 %1, ptr %7, align 4
  store i32 %2, ptr %8, align 4
  store ptr %3, ptr %9, align 8
  call void @llvm.lifetime.start.p0(i64 4, ptr %10) #11
  store i32 -1, ptr %10, align 4
  call void @llvm.lifetime.start.p0(i64 4, ptr %11) #11
  store i32 -1, ptr %11, align 4
  call void @llvm.lifetime.start.p0(i64 4, ptr %12) #11
  store i32 -1, ptr %12, align 4
  call void @llvm.lifetime.start.p0(i64 16, ptr %13) #11
  call void @llvm.lifetime.start.p0(i64 16, ptr %14) #11
  call void @llvm.lifetime.start.p0(i64 4, ptr %15) #11
  call void @llvm.lifetime.start.p0(i64 4, ptr %16) #11
  store i32 -1, ptr %16, align 4
  call void @llvm.lifetime.start.p0(i64 4, ptr %17) #11
  %25 = load i32, ptr %6, align 4
  %26 = icmp ne i32 %25, 2
  %27 = zext i1 %26 to i32
  store i32 %27, ptr %17, align 4
  %28 = load i32, ptr %17, align 4
  %29 = icmp ne i32 %28, 0
  br i1 %29, label %30, label %33

30:                                               ; preds = %4
  %31 = load i32, ptr %6, align 4
  %32 = icmp ne i32 %31, 1
  br label %33

33:                                               ; preds = %30, %4
  %34 = phi i1 [ false, %4 ], [ %32, %30 ]
  %35 = zext i1 %34 to i32
  store i32 %35, ptr %17, align 4
  %36 = load i32, ptr %8, align 4
  %37 = icmp ne i32 %36, 0
  br i1 %37, label %41, label %38

38:                                               ; preds = %33
  %39 = load i32, ptr %17, align 4
  %40 = icmp ne i32 %39, 0
  br i1 %40, label %41, label %46

41:                                               ; preds = %38, %33
  br label %42

42:                                               ; preds = %41
  %43 = call ptr @__errno_location() #12
  store i32 97, ptr %43, align 4
  br label %44

44:                                               ; preds = %42
  br label %45

45:                                               ; preds = %44
  store i32 -1, ptr %5, align 4
  store i32 1, ptr %18, align 4
  br label %230

46:                                               ; preds = %38
  %47 = load ptr, ptr %9, align 8
  %48 = icmp ne ptr %47, null
  br i1 %48, label %54, label %49

49:                                               ; preds = %46
  br label %50

50:                                               ; preds = %49
  %51 = call ptr @__errno_location() #12
  store i32 22, ptr %51, align 4
  br label %52

52:                                               ; preds = %50
  br label %53

53:                                               ; preds = %52
  store i32 -1, ptr %5, align 4
  store i32 1, ptr %18, align 4
  br label %230

54:                                               ; preds = %46
  %55 = load i32, ptr %7, align 4
  %56 = call i32 @socket(i32 noundef 2, i32 noundef %55, i32 noundef 0) #11
  store i32 %56, ptr %10, align 4
  %57 = load i32, ptr %10, align 4
  %58 = icmp slt i32 %57, 0
  br i1 %58, label %59, label %60

59:                                               ; preds = %54
  store i32 -1, ptr %5, align 4
  store i32 1, ptr %18, align 4
  br label %230

60:                                               ; preds = %54
  call void @llvm.memset.p0.i64(ptr align 4 %13, i8 0, i64 16, i1 false)
  %61 = getelementptr inbounds nuw %struct.sockaddr_in, ptr %13, i32 0, i32 0
  store i16 2, ptr %61, align 4
  %62 = call i32 @__bswap_32(i32 noundef 2130706433)
  %63 = getelementptr inbounds nuw %struct.sockaddr_in, ptr %13, i32 0, i32 2
  %64 = getelementptr inbounds nuw %struct.in_addr, ptr %63, i32 0, i32 0
  store i32 %62, ptr %64, align 4
  %65 = getelementptr inbounds nuw %struct.sockaddr_in, ptr %13, i32 0, i32 1
  store i16 0, ptr %65, align 2
  %66 = load i32, ptr %10, align 4
  store ptr %13, ptr %19, align 8
  %67 = getelementptr inbounds nuw %union.__CONST_SOCKADDR_ARG, ptr %19, i32 0, i32 0
  %68 = load ptr, ptr %67, align 8
  %69 = call i32 @bind(i32 noundef %66, ptr %68, i32 noundef 16) #11
  %70 = icmp eq i32 %69, -1
  br i1 %70, label %71, label %72

71:                                               ; preds = %60
  br label %200

72:                                               ; preds = %60
  %73 = load i32, ptr %10, align 4
  %74 = call i32 @listen(i32 noundef %73, i32 noundef 1) #11
  %75 = icmp eq i32 %74, -1
  br i1 %75, label %76, label %77

76:                                               ; preds = %72
  br label %200

77:                                               ; preds = %72
  %78 = load i32, ptr %7, align 4
  %79 = call i32 @socket(i32 noundef 2, i32 noundef %78, i32 noundef 0) #11
  store i32 %79, ptr %11, align 4
  %80 = load i32, ptr %11, align 4
  %81 = icmp slt i32 %80, 0
  br i1 %81, label %82, label %83

82:                                               ; preds = %77
  br label %200

83:                                               ; preds = %77
  call void @llvm.memset.p0.i64(ptr align 4 %14, i8 0, i64 16, i1 false)
  store i32 16, ptr %15, align 4
  %84 = load i32, ptr %10, align 4
  store ptr %14, ptr %20, align 8
  %85 = getelementptr inbounds nuw %union.__SOCKADDR_ARG, ptr %20, i32 0, i32 0
  %86 = load ptr, ptr %85, align 8
  %87 = call i32 @getsockname(i32 noundef %84, ptr %86, ptr noundef %15) #11
  %88 = icmp eq i32 %87, -1
  br i1 %88, label %89, label %90

89:                                               ; preds = %83
  br label %200

90:                                               ; preds = %83
  %91 = load i32, ptr %15, align 4
  %92 = zext i32 %91 to i64
  %93 = icmp ne i64 %92, 16
  br i1 %93, label %94, label %95

94:                                               ; preds = %90
  br label %199

95:                                               ; preds = %90
  %96 = load i32, ptr %11, align 4
  store ptr %14, ptr %21, align 8
  %97 = getelementptr inbounds nuw %union.__CONST_SOCKADDR_ARG, ptr %21, i32 0, i32 0
  %98 = load ptr, ptr %97, align 8
  %99 = call i32 @connect(i32 noundef %96, ptr %98, i32 noundef 16)
  %100 = icmp eq i32 %99, -1
  br i1 %100, label %101, label %118

101:                                              ; preds = %95
  call void @llvm.lifetime.start.p0(i64 4, ptr %22) #11
  %102 = call ptr @__errno_location() #12
  %103 = load i32, ptr %102, align 4
  store i32 %103, ptr %22, align 4
  %104 = load i32, ptr %22, align 4
  %105 = icmp eq i32 %104, 4
  br i1 %105, label %109, label %106

106:                                              ; preds = %101
  %107 = load i32, ptr %22, align 4
  %108 = icmp eq i32 %107, 115
  br i1 %108, label %109, label %113

109:                                              ; preds = %106, %101
  %110 = load i32, ptr %7, align 4
  %111 = and i32 %110, 2048
  %112 = icmp ne i32 %111, 0
  br i1 %112, label %114, label %113

113:                                              ; preds = %109, %106
  store i32 6, ptr %18, align 4
  br label %115

114:                                              ; preds = %109
  store i32 0, ptr %18, align 4
  br label %115

115:                                              ; preds = %113, %114
  call void @llvm.lifetime.end.p0(i64 4, ptr %22) #11
  %116 = load i32, ptr %18, align 4
  switch i32 %116, label %230 [
    i32 0, label %117
    i32 6, label %200
  ]

117:                                              ; preds = %115
  br label %118

118:                                              ; preds = %117, %95
  store i32 16, ptr %15, align 4
  br label %119

119:                                              ; preds = %143, %118
  %120 = load i32, ptr %10, align 4
  store ptr %13, ptr %23, align 8
  %121 = getelementptr inbounds nuw %union.__SOCKADDR_ARG, ptr %23, i32 0, i32 0
  %122 = load ptr, ptr %121, align 8
  %123 = call i32 @accept(i32 noundef %120, ptr %122, ptr noundef %15)
  store i32 %123, ptr %12, align 4
  br label %124

124:                                              ; preds = %119
  %125 = load i32, ptr %12, align 4
  %126 = icmp slt i32 %125, 0
  br i1 %126, label %127, label %143

127:                                              ; preds = %124
  %128 = call ptr @__errno_location() #12
  %129 = load i32, ptr %128, align 4
  %130 = icmp eq i32 %129, 4
  br i1 %130, label %139, label %131

131:                                              ; preds = %127
  %132 = call ptr @__errno_location() #12
  %133 = load i32, ptr %132, align 4
  %134 = icmp eq i32 %133, 11
  br i1 %134, label %139, label %135

135:                                              ; preds = %131
  %136 = call ptr @__errno_location() #12
  %137 = load i32, ptr %136, align 4
  %138 = icmp eq i32 %137, 103
  br i1 %138, label %139, label %143

139:                                              ; preds = %135, %131, %127
  %140 = load i32, ptr %7, align 4
  %141 = and i32 %140, 2048
  %142 = icmp ne i32 %141, 0
  br label %143

143:                                              ; preds = %139, %135, %124
  %144 = phi i1 [ false, %135 ], [ false, %124 ], [ %142, %139 ]
  br i1 %144, label %119, label %145, !llvm.loop !23

145:                                              ; preds = %143
  %146 = load i32, ptr %12, align 4
  %147 = icmp slt i32 %146, 0
  br i1 %147, label %148, label %149

148:                                              ; preds = %145
  br label %200

149:                                              ; preds = %145
  %150 = load i32, ptr %15, align 4
  %151 = zext i32 %150 to i64
  %152 = icmp ne i64 %151, 16
  br i1 %152, label %153, label %154

153:                                              ; preds = %149
  br label %199

154:                                              ; preds = %149
  %155 = load i32, ptr %11, align 4
  store ptr %14, ptr %24, align 8
  %156 = getelementptr inbounds nuw %union.__SOCKADDR_ARG, ptr %24, i32 0, i32 0
  %157 = load ptr, ptr %156, align 8
  %158 = call i32 @getsockname(i32 noundef %155, ptr %157, ptr noundef %15) #11
  %159 = icmp eq i32 %158, -1
  br i1 %159, label %160, label %161

160:                                              ; preds = %154
  br label %200

161:                                              ; preds = %154
  %162 = load i32, ptr %15, align 4
  %163 = zext i32 %162 to i64
  %164 = icmp ne i64 %163, 16
  br i1 %164, label %189, label %165

165:                                              ; preds = %161
  %166 = getelementptr inbounds nuw %struct.sockaddr_in, ptr %13, i32 0, i32 0
  %167 = load i16, ptr %166, align 4
  %168 = zext i16 %167 to i32
  %169 = getelementptr inbounds nuw %struct.sockaddr_in, ptr %14, i32 0, i32 0
  %170 = load i16, ptr %169, align 4
  %171 = zext i16 %170 to i32
  %172 = icmp ne i32 %168, %171
  br i1 %172, label %189, label %173

173:                                              ; preds = %165
  %174 = getelementptr inbounds nuw %struct.sockaddr_in, ptr %13, i32 0, i32 2
  %175 = getelementptr inbounds nuw %struct.in_addr, ptr %174, i32 0, i32 0
  %176 = load i32, ptr %175, align 4
  %177 = getelementptr inbounds nuw %struct.sockaddr_in, ptr %14, i32 0, i32 2
  %178 = getelementptr inbounds nuw %struct.in_addr, ptr %177, i32 0, i32 0
  %179 = load i32, ptr %178, align 4
  %180 = icmp ne i32 %176, %179
  br i1 %180, label %189, label %181

181:                                              ; preds = %173
  %182 = getelementptr inbounds nuw %struct.sockaddr_in, ptr %13, i32 0, i32 1
  %183 = load i16, ptr %182, align 2
  %184 = zext i16 %183 to i32
  %185 = getelementptr inbounds nuw %struct.sockaddr_in, ptr %14, i32 0, i32 1
  %186 = load i16, ptr %185, align 2
  %187 = zext i16 %186 to i32
  %188 = icmp ne i32 %184, %187
  br i1 %188, label %189, label %190

189:                                              ; preds = %181, %173, %165, %161
  br label %199

190:                                              ; preds = %181
  %191 = load i32, ptr %10, align 4
  %192 = call i32 @evutil_closesocket(i32 noundef %191)
  %193 = load i32, ptr %11, align 4
  %194 = load ptr, ptr %9, align 8
  %195 = getelementptr inbounds i32, ptr %194, i64 0
  store i32 %193, ptr %195, align 4
  %196 = load i32, ptr %12, align 4
  %197 = load ptr, ptr %9, align 8
  %198 = getelementptr inbounds i32, ptr %197, i64 1
  store i32 %196, ptr %198, align 4
  store i32 0, ptr %5, align 4
  store i32 1, ptr %18, align 4
  br label %230

199:                                              ; preds = %189, %153, %94
  store i32 103, ptr %16, align 4
  br label %200

200:                                              ; preds = %199, %115, %160, %148, %89, %82, %76, %71
  %201 = load i32, ptr %16, align 4
  %202 = icmp slt i32 %201, 0
  br i1 %202, label %203, label %206

203:                                              ; preds = %200
  %204 = call ptr @__errno_location() #12
  %205 = load i32, ptr %204, align 4
  store i32 %205, ptr %16, align 4
  br label %206

206:                                              ; preds = %203, %200
  %207 = load i32, ptr %10, align 4
  %208 = icmp ne i32 %207, -1
  br i1 %208, label %209, label %212

209:                                              ; preds = %206
  %210 = load i32, ptr %10, align 4
  %211 = call i32 @evutil_closesocket(i32 noundef %210)
  br label %212

212:                                              ; preds = %209, %206
  %213 = load i32, ptr %11, align 4
  %214 = icmp ne i32 %213, -1
  br i1 %214, label %215, label %218

215:                                              ; preds = %212
  %216 = load i32, ptr %11, align 4
  %217 = call i32 @evutil_closesocket(i32 noundef %216)
  br label %218

218:                                              ; preds = %215, %212
  %219 = load i32, ptr %12, align 4
  %220 = icmp ne i32 %219, -1
  br i1 %220, label %221, label %224

221:                                              ; preds = %218
  %222 = load i32, ptr %12, align 4
  %223 = call i32 @evutil_closesocket(i32 noundef %222)
  br label %224

224:                                              ; preds = %221, %218
  br label %225

225:                                              ; preds = %224
  %226 = load i32, ptr %16, align 4
  %227 = call ptr @__errno_location() #12
  store i32 %226, ptr %227, align 4
  br label %228

228:                                              ; preds = %225
  br label %229

229:                                              ; preds = %228
  store i32 -1, ptr %5, align 4
  store i32 1, ptr %18, align 4
  br label %230

230:                                              ; preds = %229, %190, %115, %59, %53, %45
  call void @llvm.lifetime.end.p0(i64 4, ptr %17) #11
  call void @llvm.lifetime.end.p0(i64 4, ptr %16) #11
  call void @llvm.lifetime.end.p0(i64 4, ptr %15) #11
  call void @llvm.lifetime.end.p0(i64 16, ptr %14) #11
  call void @llvm.lifetime.end.p0(i64 16, ptr %13) #11
  call void @llvm.lifetime.end.p0(i64 4, ptr %12) #11
  call void @llvm.lifetime.end.p0(i64 4, ptr %11) #11
  call void @llvm.lifetime.end.p0(i64 4, ptr %10) #11
  %231 = load i32, ptr %5, align 4
  ret i32 %231
}