; Function Attrs: nounwind uwtable
define range(i32 -1, 1) i32 @evutil_ersatz_socketpair_(i32 noundef %0, i32 noundef %1, i32 noundef %2, ptr noundef writeonly captures(address_is_null) %3) local_unnamed_addr #0 {
  %5 = alloca %struct.sockaddr_in, align 4
  %6 = alloca %struct.sockaddr_in, align 4
  %7 = alloca i32, align 4
  call void @llvm.lifetime.start.p0(i64 16, ptr nonnull %5) #30
  call void @llvm.lifetime.start.p0(i64 16, ptr nonnull %6) #30
  call void @llvm.lifetime.start.p0(i64 4, ptr nonnull %7) #30
  %8 = add i32 %0, -3
  %9 = icmp ult i32 %8, -2
  %10 = icmp ne i32 %2, 0
  %or.cond = or i1 %9, %10
  br i1 %or.cond, label %11, label %13

11:                                               ; preds = %4
  %12 = tail call ptr @__errno_location() #31
  store i32 97, ptr %12, align 4
  br label %88

13:                                               ; preds = %4
  %.not = icmp eq ptr %3, null
  br i1 %.not, label %14, label %16

14:                                               ; preds = %13
  %15 = tail call ptr @__errno_location() #31
  store i32 22, ptr %15, align 4
  br label %88

16:                                               ; preds = %13
  %17 = tail call i32 @socket(i32 noundef 2, i32 noundef %1, i32 noundef 0) #30
  %18 = icmp slt i32 %17, 0
  br i1 %18, label %88, label %19

19:                                               ; preds = %16
  %20 = getelementptr inbounds nuw i8, ptr %5, i64 8
  store i64 0, ptr %20, align 4
  store i16 2, ptr %5, align 4
  %21 = getelementptr inbounds nuw i8, ptr %5, i64 4
  store i32 16777343, ptr %21, align 4
  %22 = getelementptr inbounds nuw i8, ptr %5, i64 2
  store i16 0, ptr %22, align 2
  %23 = call i32 @bind(i32 noundef %17, ptr nonnull %5, i32 noundef 16) #30
  %24 = icmp eq i32 %23, -1
  br i1 %24, label %.thread, label %25

25:                                               ; preds = %19
  %26 = call i32 @listen(i32 noundef %17, i32 noundef 1) #30
  %27 = icmp eq i32 %26, -1
  br i1 %27, label %.thread, label %28

28:                                               ; preds = %25
  %29 = call i32 @socket(i32 noundef 2, i32 noundef %1, i32 noundef 0) #30
  %30 = icmp slt i32 %29, 0
  br i1 %30, label %.thread, label %31

31:                                               ; preds = %28
  call void @llvm.memset.p0.i64(ptr noundef nonnull align 4 dereferenceable(16) %6, i8 0, i64 16, i1 false)
  store i32 16, ptr %7, align 4
  %32 = call i32 @getsockname(i32 noundef %17, ptr nonnull %6, ptr noundef nonnull %7) #30
  %33 = icmp eq i32 %32, -1
  br i1 %33, label %.thread, label %34

34:                                               ; preds = %31
  %35 = load i32, ptr %7, align 4
  %.not55 = icmp eq i32 %35, 16
  br i1 %.not55, label %37, label %.critedge.thread74

.critedge.thread74:                               ; preds = %34
  %36 = call i32 @close(i32 noundef %17) #30
  br label %81

37:                                               ; preds = %34
  %38 = call i32 @connect(i32 noundef %29, ptr nonnull %6, i32 noundef 16) #30
  %39 = icmp eq i32 %38, -1
  br i1 %39, label %40, label %45

40:                                               ; preds = %37
  %41 = tail call ptr @__errno_location() #31
  %42 = load i32, ptr %41, align 4
  switch i32 %42, label %.thread [
    i32 115, label %43
    i32 4, label %43
  ]

43:                                               ; preds = %40, %40
  %44 = and i32 %1, 2048
  %.not56 = icmp eq i32 %44, 0
  br i1 %.not56, label %.thread, label %.thread88

.thread88:                                        ; preds = %43
  store i32 16, ptr %7, align 4
  br label %.split

45:                                               ; preds = %37
  %.pre = and i32 %1, 2048
  %46 = icmp eq i32 %.pre, 0
  store i32 16, ptr %7, align 4
  br i1 %46, label %.split.us, label %.split, !llvm.loop !24

.split.us:                                        ; preds = %45
  %47 = call i32 @accept(i32 noundef %17, ptr nonnull %5, ptr noundef nonnull %7) #30
  %48 = icmp slt i32 %47, 0
  br i1 %48, label %.thread, label %.critedge65

.split:                                           ; preds = %.thread88, %45
  %49 = call i32 @accept(i32 noundef %17, ptr nonnull %5, ptr noundef nonnull %7) #30
  %50 = icmp slt i32 %49, 0
  br i1 %50, label %.lr.ph, label %.critedge65

.lr.ph:                                           ; preds = %.split
  %51 = tail call ptr @__errno_location() #31
  br label %52

52:                                               ; preds = %.lr.ph, %55
  %53 = phi i32 [ %49, %.lr.ph ], [ %56, %55 ]
  %54 = load i32, ptr %51, align 4
  switch i32 %54, label %.thread [
    i32 4, label %55
    i32 11, label %55
    i32 103, label %55
  ]

55:                                               ; preds = %52, %52, %52
  %56 = call i32 @accept(i32 noundef %17, ptr nonnull %5, ptr noundef nonnull %7) #30
  %57 = icmp slt i32 %56, 0
  br i1 %57, label %52, label %.critedge65

.critedge65:                                      ; preds = %55, %.split, %.split.us
  %.us-phi = phi i32 [ %47, %.split.us ], [ %49, %.split ], [ %56, %55 ]
  %58 = load i32, ptr %7, align 4
  %.not58 = icmp eq i32 %58, 16
  br i1 %.not58, label %59, label %.critedge

59:                                               ; preds = %.critedge65
  %60 = call i32 @getsockname(i32 noundef %29, ptr nonnull %6, ptr noundef nonnull %7) #30
  %61 = icmp eq i32 %60, -1
  br i1 %61, label %.thread, label %62

62:                                               ; preds = %59
  %63 = load i32, ptr %7, align 4
  %.not59 = icmp eq i32 %63, 16
  br i1 %.not59, label %64, label %.critedge

64:                                               ; preds = %62
  %65 = load i16, ptr %5, align 4
  %66 = load i16, ptr %6, align 4
  %.not60 = icmp eq i16 %65, %66
  br i1 %.not60, label %67, label %.critedge

67:                                               ; preds = %64
  %68 = load i32, ptr %21, align 4
  %69 = getelementptr inbounds nuw i8, ptr %6, i64 4
  %70 = load i32, ptr %69, align 4
  %.not61 = icmp eq i32 %68, %70
  br i1 %.not61, label %71, label %.critedge

71:                                               ; preds = %67
  %72 = load i16, ptr %22, align 2
  %73 = getelementptr inbounds nuw i8, ptr %6, i64 2
  %74 = load i16, ptr %73, align 2
  %.not62 = icmp eq i16 %72, %74
  br i1 %.not62, label %75, label %.critedge

75:                                               ; preds = %71
  %76 = call i32 @close(i32 noundef %17) #30
  store i32 %29, ptr %3, align 4
  %77 = getelementptr inbounds nuw i8, ptr %3, i64 4
  store i32 %.us-phi, ptr %77, align 4
  br label %88

.thread:                                          ; preds = %52, %.split.us, %43, %40, %19, %25, %28, %31, %59
  %.044.ph = phi i32 [ %.us-phi, %59 ], [ -1, %31 ], [ -1, %28 ], [ -1, %25 ], [ -1, %19 ], [ -1, %40 ], [ -1, %43 ], [ %47, %.split.us ], [ %53, %52 ]
  %.043.ph = phi i32 [ %29, %59 ], [ %29, %31 ], [ %29, %28 ], [ -1, %25 ], [ -1, %19 ], [ %29, %40 ], [ %29, %43 ], [ %29, %.split.us ], [ %29, %52 ]
  %78 = tail call ptr @__errno_location() #31
  %79 = load i32, ptr %78, align 4
  br label %.critedge

.critedge:                                        ; preds = %62, %64, %67, %71, %.critedge65, %.thread
  %.04372 = phi i32 [ %.043.ph, %.thread ], [ %29, %62 ], [ %29, %64 ], [ %29, %67 ], [ %29, %71 ], [ %29, %.critedge65 ]
  %.04470 = phi i32 [ %.044.ph, %.thread ], [ %.us-phi, %62 ], [ %.us-phi, %64 ], [ %.us-phi, %67 ], [ %.us-phi, %71 ], [ %.us-phi, %.critedge65 ]
  %.146 = phi i32 [ %79, %.thread ], [ 103, %62 ], [ 103, %64 ], [ 103, %67 ], [ 103, %71 ], [ 103, %.critedge65 ]
  %80 = call i32 @close(i32 noundef %17) #30
  %.not63 = icmp eq i32 %.04372, -1
  br i1 %.not63, label %83, label %81

81:                                               ; preds = %.critedge.thread74, %.critedge
  %.14682 = phi i32 [ 103, %.critedge.thread74 ], [ %.146, %.critedge ]
  %.0447080 = phi i32 [ -1, %.critedge.thread74 ], [ %.04470, %.critedge ]
  %.0437279 = phi i32 [ %29, %.critedge.thread74 ], [ %.04372, %.critedge ]
  %82 = call i32 @close(i32 noundef %.0437279) #30
  br label %83

83:                                               ; preds = %81, %.critedge
  %.14683 = phi i32 [ %.14682, %81 ], [ %.146, %.critedge ]
  %.0447081 = phi i32 [ %.0447080, %81 ], [ %.04470, %.critedge ]
  %.not64 = icmp eq i32 %.0447081, -1
  br i1 %.not64, label %86, label %84

84:                                               ; preds = %83
  %85 = call i32 @close(i32 noundef %.0447081) #30
  br label %86

86:                                               ; preds = %83, %84
  %87 = tail call ptr @__errno_location() #31
  store i32 %.14683, ptr %87, align 4
  br label %88

88:                                               ; preds = %16, %86, %75, %14, %11
  %.0 = phi i32 [ -1, %11 ], [ -1, %86 ], [ 0, %75 ], [ -1, %14 ], [ -1, %16 ]
  call void @llvm.lifetime.end.p0(i64 4, ptr nonnull %7) #30
  call void @llvm.lifetime.end.p0(i64 16, ptr nonnull %6) #30
  call void @llvm.lifetime.end.p0(i64 16, ptr nonnull %5) #30
  ret i32 %.0
}